; Function Attrs: mustprogress nofree norecurse nosync nounwind willreturn memory(argmem: write) uwtable
define void @lv_area_set(ptr noundef writeonly captures(none) initializes((0, 16)) %0, i32 noundef %1, i32 noundef %2, i32 noundef %3, i32 noundef %4) local_unnamed_addr #0 {
  store i32 %1, ptr %0, align 4, !tbaa !3
  %6 = getelementptr inbounds nuw i8, ptr %0, i64 4
  store i32 %2, ptr %6, align 4, !tbaa !8
  %7 = getelementptr inbounds nuw i8, ptr %0, i64 8
  store i32 %3, ptr %7, align 4, !tbaa !9
  %8 = getelementptr inbounds nuw i8, ptr %0, i64 12
  store i32 %4, ptr %8, align 4, !tbaa !10
  ret void
}